target datalayout = "e-m:e-p270:32:32-p271:32:32-p272:64:64-i64:64-i128:128-f80:128-n8:16:32:64-S128"
target triple = "x86_64-pc-linux-gnu"

@uma_udp_handle = internal global ptr null, align 8
@proto_uma = internal global i32 0, align 4
@uma_tcp_handle = internal global ptr null, align 8
@proto_register_uma.ett = internal global [3 x ptr] [ptr @ett_uma, ptr @ett_uma_toc, ptr @ett_urr_ie], align 16
@.str.220 = private unnamed_addr constant [25 x i8] c"Unlicensed Mobile Access\00", align 1
@.str.221 = private unnamed_addr constant [4 x i8] c"UMA\00", align 1
@.str.222 = private unnamed_addr constant [4 x i8] c"uma\00", align 1
@.str.223 = private unnamed_addr constant [7 x i8] c"umatcp\00", align 1
@.str.224 = private unnamed_addr constant [7 x i8] c"umaudp\00", align 1
@.str.225 = private unnamed_addr constant [23 x i8] c"desegment_ucp_messages\00", align 1
@.str.226 = private unnamed_addr constant [55 x i8] c"Reassemble UMA messages spanning multiple TCP segments\00", align 1
@.str.227 = private unnamed_addr constant [204 x i8] c"Whether the UMA dissector should reassemble messages spanning multiple TCP segments. To use this option, you must also enable \22Allow subdissectors to reassemble TCP streams\22 in the TCP protocol settings.\00", align 1
@uma_desegment = internal global i8 1, align 1
@.str.228 = private unnamed_addr constant [10 x i8] c"tcp.port1\00", align 1
@.str.229 = private unnamed_addr constant [10 x i8] c"udp.ports\00", align 1

; Function Attrs: null_pointer_is_valid sspstrong uwtable
define hidden void @proto_register_uma() #0 {
  %1 = alloca ptr, align 8
  %2 = alloca ptr, align 8
  call void @llvm.lifetime.start.p0(i64 8, ptr %1) #4
  call void @llvm.lifetime.start.p0(i64 8, ptr %2) #4
  %3 = call i32 @proto_register_protocol(ptr noundef @.str.220, ptr noundef @.str.221, ptr noundef @.str.222)
  store i32 %3, ptr @proto_uma, align 4
  %4 = load i32, ptr @proto_uma, align 4
  %5 = call ptr @register_dissector(ptr noundef @.str.223, ptr noundef @dissect_uma_tcp, i32 noundef %4)
  store ptr %5, ptr @uma_tcp_handle, align 8
  %6 = load i32, ptr @proto_uma, align 4
  %7 = call ptr @register_dissector(ptr noundef @.str.224, ptr noundef @dissect_uma_urlc_udp, i32 noundef %6)
  store ptr %7, ptr @uma_udp_handle, align 8
  %8 = load i32, ptr @proto_uma, align 4
  call void @proto_register_field_array(i32 noundef %8, ptr noundef @proto_register_uma.hf, i32 noundef 99)
  call void @proto_register_subtree_array(ptr noundef @proto_register_uma.ett, i32 noundef 3)
  %9 = load i32, ptr @proto_uma, align 4
  %10 = call ptr @expert_register_protocol(i32 noundef %9)
  store ptr %10, ptr %2, align 8
  %11 = load ptr, ptr %2, align 8
  call void @expert_register_field_array(ptr noundef %11, ptr noundef @proto_register_uma.ei, i32 noundef 6)
  %12 = load i32, ptr @proto_uma, align 4
  %13 = call ptr @prefs_register_protocol(i32 noundef %12, ptr noundef null)
  store ptr %13, ptr %1, align 8
  %14 = load ptr, ptr %1, align 8
  call void @prefs_register_bool_preference(ptr noundef %14, ptr noundef @.str.225, ptr noundef @.str.226, ptr noundef @.str.227, ptr noundef @uma_desegment)
  %15 = load ptr, ptr %1, align 8
  call void @prefs_register_obsolete_preference(ptr noundef %15, ptr noundef @.str.228)
  %16 = load ptr, ptr %1, align 8
  call void @prefs_register_obsolete_preference(ptr noundef %16, ptr noundef @.str.229)
  call void @llvm.lifetime.end.p0(i64 8, ptr %2) #4
  call void @llvm.lifetime.end.p0(i64 8, ptr %1) #4
  ret void
}