; Function Attrs: null_pointer_is_valid sspstrong uwtable
define hidden void @proto_register_uma() local_unnamed_addr #0 {
  %1 = tail call i32 @proto_register_protocol(ptr noundef nonnull @.str.220, ptr noundef nonnull @.str.221, ptr noundef nonnull @.str.222)
  store i32 %1, ptr @proto_uma, align 4
  %2 = tail call ptr @register_dissector(ptr noundef nonnull @.str.223, ptr noundef nonnull @dissect_uma_tcp, i32 noundef %1)
  store ptr %2, ptr @uma_tcp_handle, align 8
  %3 = load i32, ptr @proto_uma, align 4
  %4 = tail call ptr @register_dissector(ptr noundef nonnull @.str.224, ptr noundef nonnull @dissect_uma_urlc_udp, i32 noundef %3)
  store ptr %4, ptr @uma_udp_handle, align 8
  %5 = load i32, ptr @proto_uma, align 4
  tail call void @proto_register_field_array(i32 noundef %5, ptr noundef nonnull @proto_register_uma.hf, i32 noundef 99)
  tail call void @proto_register_subtree_array(ptr noundef nonnull @proto_register_uma.ett, i32 noundef 3)
  %6 = load i32, ptr @proto_uma, align 4
  %7 = tail call ptr @expert_register_protocol(i32 noundef %6)
  tail call void @expert_register_field_array(ptr noundef %7, ptr noundef nonnull @proto_register_uma.ei, i32 noundef 6)
  %8 = load i32, ptr @proto_uma, align 4
  %9 = tail call ptr @prefs_register_protocol(i32 noundef %8, ptr noundef null)
  tail call void @prefs_register_bool_preference(ptr noundef %9, ptr noundef nonnull @.str.225, ptr noundef nonnull @.str.226, ptr noundef nonnull @.str.227, ptr noundef nonnull @uma_desegment)
  tail call void @prefs_register_obsolete_preference(ptr noundef %9, ptr noundef nonnull @.str.228)
  tail call void @prefs_register_obsolete_preference(ptr noundef %9, ptr noundef nonnull @.str.229)
  ret void
}